; Function Attrs: mustprogress nofree norecurse nosync nounwind willreturn memory(argmem: read) uwtable
define range(i32 0, 2) i32 @Abc_NodeIsConst(ptr noundef readonly captures(none) %0) local_unnamed_addr #6 {
  %2 = getelementptr i8, ptr %0, i64 20
  %.val = load i32, ptr %2, align 4
  %3 = and i32 %.val, 15
  %.not = icmp eq i32 %3, 7
  br i1 %.not, label %4, label %8

4:                                                ; preds = %1
  %5 = getelementptr i8, ptr %0, i64 28
  %.val2 = load i32, ptr %5, align 4, !tbaa !59
  %6 = icmp eq i32 %.val2, 0
  %7 = zext i1 %6 to i32
  br label %8

8:                                                ; preds = %4, %1
  %9 = phi i32 [ 0, %1 ], [ %7, %4 ]
  ret i32 %9
}